; Function Attrs: nounwind uwtable
define void @curl_easy_reset(ptr noundef %0) local_unnamed_addr #5 {
  %2 = getelementptr inbounds nuw i8, ptr %0, i64 240
  tail call void @Curl_req_hard_reset(ptr noundef nonnull %2, ptr noundef %0) #11
  tail call void @Curl_freeset(ptr noundef %0) #11
  %3 = getelementptr inbounds nuw i8, ptr %0, i64 464
  tail call void @llvm.memset.p0.i64(ptr noundef nonnull align 8 dereferenceable(2208) %3, i8 0, i64 2208, i1 false)
  %4 = tail call i32 @Curl_init_userdefined(ptr noundef %0) #11
  %5 = getelementptr inbounds nuw i8, ptr %0, i64 2696
  tail call void @llvm.memset.p0.i64(ptr noundef nonnull align 8 dereferenceable(432) %5, i8 0, i64 432, i1 false)
  %6 = tail call i32 @Curl_initinfo(ptr noundef %0) #11
  %7 = getelementptr inbounds nuw i8, ptr %0, i64 2820
  %8 = load i32, ptr %7, align 4, !tbaa !117
  %9 = or i32 %8, 16
  store i32 %9, ptr %7, align 4, !tbaa !117
  %10 = getelementptr inbounds nuw i8, ptr %0, i64 3200
  store i64 -1, ptr %10, align 8, !tbaa !125
  %11 = getelementptr inbounds nuw i8, ptr %0, i64 3224
  store i32 0, ptr %11, align 8, !tbaa !126
  %12 = getelementptr inbounds nuw i8, ptr %0, i64 3384
  tail call void @llvm.memset.p0.i64(ptr noundef nonnull align 8 dereferenceable(64) %12, i8 0, i64 64, i1 false)
  tail call void @Curl_http_auth_cleanup_digest(ptr noundef %0) #11
  ret void
}